; ModuleID = '34/2088.c'
source_filename = "34/2088.c"
target datalayout = "e-m:e-p270:32:32-p271:32:32-p272:64:64-i64:64-f80:128-n8:16:32:64-S128"
target triple = "x86_64-pc-linux-gnu"

@.str = private unnamed_addr constant [3 x i8] c"%d\00", align 1
@.str.1 = private unnamed_addr constant [5 x i8] c"End\0A\00", align 1
@.str.2 = private unnamed_addr constant [11 x i8] c"%d*3+1=%d\0A\00", align 1
@.str.3 = private unnamed_addr constant [9 x i8] c"%d/2=%d\0A\00", align 1

; Function Attrs: noinline nounwind uwtable
define dso_local i32 @main() #0 {
  %1 = alloca i32, align 4
  %2 = alloca i32, align 4
  store i32 0, i32* %1, align 4
  %3 = call i32 (i8*, ...) @__isoc99_scanf(i8* getelementptr inbounds ([3 x i8], [3 x i8]* @.str, i64 0, i64 0), i32* %2)
  br label %4

4:                                                ; preds = %11, %0
  %5 = load i32, i32* %2, align 4
  %6 = icmp eq i32 %5, 1
  br i1 %6, label %7, label %9

7:                                                ; preds = %4
  %8 = call i32 (i8*, ...) @printf(i8* getelementptr inbounds ([5 x i8], [5 x i8]* @.str.1, i64 0, i64 0))
  store i32 0, i32* %1, align 4
  br label %12

9:                                                ; preds = %4
  call void @cal(i32* %2)
  br label %10

10:                                               ; preds = %9
  br label %11

11:                                               ; preds = %10
  br i1 true, label %4, label %12

12:                                               ; preds = %7, %11
  %13 = load i32, i32* %1, align 4
  ret i32 %13
}

declare dso_local i32 @__isoc99_scanf(i8*, ...) #1

declare dso_local i32 @printf(i8*, ...) #1

; Function Attrs: noinline nounwind uwtable
define dso_local void @cal(i32* %0) #0 {
  %2 = alloca i32*, align 8
  %3 = alloca i32, align 4
  store i32* %0, i32** %2, align 8
  %4 = load i32*, i32** %2, align 8
  %5 = load i32, i32* %4, align 4
  store i32 %5, i32* %3, align 4
  %6 = load i32, i32* %3, align 4
  %7 = srem i32 %6, 2
  %8 = icmp ne i32 %7, 0
  br i1 %8, label %9, label %18

9:                                                ; preds = %1
  %10 = load i32, i32* %3, align 4
  %11 = mul nsw i32 %10, 3
  %12 = add nsw i32 %11, 1
  store i32 %12, i32* %3, align 4
  %13 = load i32, i32* %3, align 4
  %14 = sub nsw i32 %13, 1
  %15 = sdiv i32 %14, 3
  %16 = load i32, i32* %3, align 4
  %17 = call i32 (i8*, ...) @printf(i8* getelementptr inbounds ([11 x i8], [11 x i8]* @.str.2, i64 0, i64 0), i32 %15, i32 %16)
  br label %25

18:                                               ; preds = %1
  %19 = load i32, i32* %3, align 4
  %20 = sdiv i32 %19, 2
  store i32 %20, i32* %3, align 4
  %21 = load i32, i32* %3, align 4
  %22 = mul nsw i32 %21, 2
  %23 = load i32, i32* %3, align 4
  %24 = call i32 (i8*, ...) @printf(i8* getelementptr inbounds ([9 x i8], [9 x i8]* @.str.3, i64 0, i64 0), i32 %22, i32 %23)
  br label %25

25:                                               ; preds = %18, %9
  %26 = load i32, i32* %3, align 4
  %27 = load i32*, i32** %2, align 8
  store i32 %26, i32* %27, align 4
  ret void
}


!llvm.module.flags = !{!0}
!llvm.ident = !{!1}

!0 = !{i32 1, !"wchar_size", i32 4}
!1 = !{!"clang version 10.0.0-4ubuntu1 "}
